target datalayout = "e-m:e-p270:32:32-p271:32:32-p272:64:64-i64:64-i128:128-f80:128-n8:16:32:64-S128"
target triple = "x86_64-pc-linux-gnu"

; Function Attrs: nounwind uwtable
define hidden i32 @BN_primality_test(ptr noundef %0, ptr noundef %1, i32 noundef %2, ptr noundef %3, i32 noundef %4, ptr noundef %5) #0 {
  %7 = alloca i32, align 4
  %8 = alloca ptr, align 8
  %9 = alloca ptr, align 8
  %10 = alloca i32, align 4
  %11 = alloca ptr, align 8
  %12 = alloca i32, align 4
  %13 = alloca ptr, align 8
  store ptr %0, ptr %8, align 8, !tbaa !41
  store ptr %1, ptr %9, align 8, !tbaa !17
  store i32 %2, ptr %10, align 4, !tbaa !15
  store ptr %3, ptr %11, align 8, !tbaa !19
  store i32 %4, ptr %12, align 4, !tbaa !15
  store ptr %5, ptr %13, align 8, !tbaa !6
  %14 = load ptr, ptr %9, align 8, !tbaa !17
  %15 = load i32, ptr %10, align 4, !tbaa !15
  %16 = load ptr, ptr %11, align 8, !tbaa !19
  %17 = load i32, ptr %12, align 4, !tbaa !15
  %18 = load ptr, ptr %13, align 8, !tbaa !6
  %19 = call i32 @BN_is_prime_fasttest_ex(ptr noundef %14, i32 noundef %15, ptr noundef %16, i32 noundef %17, ptr noundef %18)
  switch i32 %19, label %24 [
    i32 1, label %20
    i32 0, label %22
  ]

20:                                               ; preds = %6
  %21 = load ptr, ptr %8, align 8, !tbaa !41
  store i32 1, ptr %21, align 4, !tbaa !15
  store i32 1, ptr %7, align 4
  br label %26

22:                                               ; preds = %6
  %23 = load ptr, ptr %8, align 8, !tbaa !41
  store i32 0, ptr %23, align 4, !tbaa !15
  store i32 1, ptr %7, align 4
  br label %26

24:                                               ; preds = %6
  %25 = load ptr, ptr %8, align 8, !tbaa !41
  store i32 0, ptr %25, align 4, !tbaa !15
  store i32 0, ptr %7, align 4
  br label %26

26:                                               ; preds = %24, %22, %20
  %27 = load i32, ptr %7, align 4
  ret i32 %27
}