; Function Attrs: nounwind uwtable
define hidden range(i32 0, 2) i32 @BN_primality_test(ptr noundef writeonly captures(none) initializes((0, 4)) %0, ptr noundef %1, i32 noundef %2, ptr noundef %3, i32 noundef %4, ptr noundef %5) local_unnamed_addr #1 {
  %7 = tail call i32 @BN_is_prime_fasttest_ex(ptr noundef %1, i32 noundef %2, ptr noundef %3, i32 noundef %4, ptr noundef %5)
  switch i32 %7, label %9 [
    i32 1, label %10
    i32 0, label %8
  ]

8:                                                ; preds = %6
  br label %10

9:                                                ; preds = %6
  br label %10

10:                                               ; preds = %6, %9, %8
  %.sink = phi i32 [ 0, %9 ], [ %7, %8 ], [ %7, %6 ]
  %.0 = phi i32 [ 0, %9 ], [ 1, %8 ], [ %7, %6 ]
  store i32 %.sink, ptr %0, align 4, !tbaa !32
  ret i32 %.0
}